target datalayout = "e-m:e-p270:32:32-p271:32:32-p272:64:64-i64:64-i128:128-f80:128-n8:16:32:64-S128"
target triple = "x86_64-pc-linux-gnu"

%union.PJ_COORD = type { [4 x double] }
%struct.PJconsts = type <{ ptr, ptr, ptr, ptr, ptr, ptr, ptr, ptr, ptr, ptr, ptr, ptr, i32, [4 x i8], ptr, ptr, ptr, ptr, ptr, ptr, ptr, ptr, double, double, double, double, double, double, double, double, double, double, double, double, double, double, double, double, double, double, double, double, double, double, i32, i32, i32, i32, i32, i32, i32, i32, i32, i32, i32, [4 x i8], ptr, ptr, ptr, ptr, ptr, ptr, double, double, double, double, double, double, double, double, double, double, double, i32, [4 x i8], [7 x double], i32, [4 x i8], ptr, ptr, double, double, i32, [4 x i8], %"class.std::shared_ptr", i8, [7 x i8], double, i8, [7 x i8], %"class.std::__cxx11::basic_string", %"class.std::__cxx11::basic_string", %"class.std::__cxx11::basic_string", i8, [7 x i8], %"class.std::vector", i32, [4 x i8], %"class.std::vector.3", i32, i8, i8, i8, i8 }>
%"class.std::shared_ptr" = type { %"class.std::__shared_ptr" }
%"class.std::__shared_ptr" = type { ptr, %"class.std::__shared_count" }
%"class.std::__shared_count" = type { ptr }
%"class.std::__cxx11::basic_string" = type { %"struct.std::__cxx11::basic_string<char>::_Alloc_hider", i64, %union.anon }
%"struct.std::__cxx11::basic_string<char>::_Alloc_hider" = type { ptr }
%union.anon = type { i64, [8 x i8] }
%"class.std::vector" = type { %"struct.std::_Vector_base" }
%"struct.std::_Vector_base" = type { %"struct.std::_Vector_base<osgeo::proj::operation::GridDescription, std::allocator<osgeo::proj::operation::GridDescription>>::_Vector_impl" }
%"struct.std::_Vector_base<osgeo::proj::operation::GridDescription, std::allocator<osgeo::proj::operation::GridDescription>>::_Vector_impl" = type { %"struct.std::_Vector_base<osgeo::proj::operation::GridDescription, std::allocator<osgeo::proj::operation::GridDescription>>::_Vector_impl_data" }
%"struct.std::_Vector_base<osgeo::proj::operation::GridDescription, std::allocator<osgeo::proj::operation::GridDescription>>::_Vector_impl_data" = type { ptr, ptr, ptr }
%"class.std::vector.3" = type { %"struct.std::_Vector_base.4" }
%"struct.std::_Vector_base.4" = type { %"struct.std::_Vector_base<PJCoordOperation, std::allocator<PJCoordOperation>>::_Vector_impl" }
%"struct.std::_Vector_base<PJCoordOperation, std::allocator<PJCoordOperation>>::_Vector_impl" = type { %"struct.std::_Vector_base<PJCoordOperation, std::allocator<PJCoordOperation>>::_Vector_impl_data" }
%"struct.std::_Vector_base<PJCoordOperation, std::allocator<PJCoordOperation>>::_Vector_impl_data" = type { ptr, ptr, ptr }
%struct.PJ_LP = type { double, double }

; Function Attrs: mustprogress nounwind uwtable
define hidden void @_Z22pj_geocentric_latitudePK8PJconsts12PJ_DIRECTION8PJ_COORD(ptr dead_on_unwind noalias writable sret(%union.PJ_COORD) align 8 %0, ptr noundef %1, i32 noundef %2, ptr noundef byval(%union.PJ_COORD) align 8 %3) #0 {
  %5 = alloca ptr, align 8
  %6 = alloca i32, align 4
  %7 = alloca double, align 8
  store ptr %1, ptr %5, align 8
  store i32 %2, ptr %6, align 4
  store double 0x3FF921FB53FF74E8, ptr %7, align 8
  call void @llvm.memcpy.p0.p0.i64(ptr align 8 %0, ptr align 8 %3, i64 32, i1 false)
  %8 = getelementptr inbounds %struct.PJ_LP, ptr %3, i32 0, i32 1
  %9 = load double, ptr %8, align 8
  %10 = fcmp ogt double %9, 0x3FF921FB53FF74E8
  br i1 %10, label %20, label %11

11:                                               ; preds = %4
  %12 = getelementptr inbounds %struct.PJ_LP, ptr %3, i32 0, i32 1
  %13 = load double, ptr %12, align 8
  %14 = fcmp olt double %13, 0xBFF921FB53FF74E8
  br i1 %14, label %20, label %15

15:                                               ; preds = %11
  %16 = load ptr, ptr %5, align 8
  %17 = getelementptr inbounds %struct.PJconsts, ptr %16, i32 0, i32 28
  %18 = load double, ptr %17, align 8
  %19 = fcmp oeq double %18, 0.000000e+00
  br i1 %19, label %20, label %21

20:                                               ; preds = %15, %11, %4
  br label %45

21:                                               ; preds = %15
  %22 = load i32, ptr %6, align 4
  %23 = icmp eq i32 %22, 1
  br i1 %23, label %24, label %34

24:                                               ; preds = %21
  %25 = load ptr, ptr %5, align 8
  %26 = getelementptr inbounds %struct.PJconsts, ptr %25, i32 0, i32 33
  %27 = load double, ptr %26, align 8
  %28 = getelementptr inbounds %struct.PJ_LP, ptr %3, i32 0, i32 1
  %29 = load double, ptr %28, align 8
  %30 = call double @tan(double noundef %29) #19
  %31 = fmul double %27, %30
  %32 = call double @atan(double noundef %31) #19
  %33 = getelementptr inbounds %struct.PJ_LP, ptr %0, i32 0, i32 1
  store double %32, ptr %33, align 8
  br label %44

34:                                               ; preds = %21
  %35 = load ptr, ptr %5, align 8
  %36 = getelementptr inbounds %struct.PJconsts, ptr %35, i32 0, i32 34
  %37 = load double, ptr %36, align 8
  %38 = getelementptr inbounds %struct.PJ_LP, ptr %3, i32 0, i32 1
  %39 = load double, ptr %38, align 8
  %40 = call double @tan(double noundef %39) #19
  %41 = fmul double %37, %40
  %42 = call double @atan(double noundef %41) #19
  %43 = getelementptr inbounds %struct.PJ_LP, ptr %0, i32 0, i32 1
  store double %42, ptr %43, align 8
  br label %44

44:                                               ; preds = %34, %24
  br label %45

45:                                               ; preds = %44, %20
  ret void
}