; Function Attrs: mustprogress nofree nounwind willreturn memory(write, argmem: readwrite) uwtable
define hidden void @_Z22pj_geocentric_latitudePK8PJconsts12PJ_DIRECTION8PJ_COORD(ptr dead_on_unwind noalias nocapture writable writeonly sret(%union.PJ_COORD) align 8 %0, ptr nocapture noundef readonly %1, i32 noundef %2, ptr nocapture noundef readonly byval(%union.PJ_COORD) align 8 %3) local_unnamed_addr #10 {
  call void @llvm.memcpy.p0.p0.i64(ptr noundef nonnull align 8 dereferenceable(32) %0, ptr noundef nonnull align 8 dereferenceable(32) %3, i64 32, i1 false)
  %5 = getelementptr inbounds i8, ptr %3, i64 8
  %6 = load double, ptr %5, align 8
  %7 = tail call double @llvm.fabs.f64(double %6)
  %or.cond = fcmp ogt double %7, 0x3FF921FB53FF74E8
  br i1 %or.cond, label %19, label %8

8:                                                ; preds = %4
  %9 = getelementptr inbounds i8, ptr %1, i64 216
  %10 = load double, ptr %9, align 8
  %11 = fcmp oeq double %10, 0.000000e+00
  br i1 %11, label %19, label %.sink.split

.sink.split:                                      ; preds = %8
  %12 = icmp eq i32 %2, 1
  %13 = getelementptr inbounds i8, ptr %0, i64 8
  %. = select i1 %12, i64 256, i64 264
  %14 = getelementptr inbounds i8, ptr %1, i64 %.
  %15 = load double, ptr %14, align 8
  %16 = tail call double @tan(double noundef %6) #33
  %17 = fmul double %15, %16
  %18 = tail call double @atan(double noundef %17) #33
  store double %18, ptr %13, align 8
  br label %19

19:                                               ; preds = %.sink.split, %4, %8
  ret void
}